target datalayout = "e-m:e-p270:32:32-p271:32:32-p272:64:64-i64:64-i128:128-f80:128-n8:16:32:64-S128"
target triple = "x86_64-pc-linux-gnu"

%struct.strbuf = type { i64, i64, ptr }
%struct.hashmap = type { ptr, ptr, ptr, i32, i32, i32, i32, i8 }
%struct.config_options = type { i8, ptr, ptr, ptr, ptr, i32 }
%struct.repository = type { ptr, ptr, ptr, ptr, ptr, %struct.strmap, %struct.strmap, %struct.repo_path_cache, ptr, ptr, ptr, ptr, %struct.repo_settings, ptr, ptr, ptr, ptr, ptr, ptr, i32, i32, i32, ptr, ptr, i32, i32, i8 }
%struct.strmap = type { %struct.hashmap, ptr, i8 }
%struct.repo_path_cache = type { ptr, ptr, ptr, ptr, ptr, ptr, ptr }
%struct.repo_settings = type { i32, i32, i32, i32, i32, i32, i32, i32, i32, i32, i32, i32, ptr, i32, i32, i32, i32, i32, i32, i32, i64, i64, i64 }

@__const.read_early_config.commondir = private unnamed_addr constant %struct.strbuf { i64 0, i64 0, ptr @strbuf_slopbuf }, align 8
@__const.read_early_config.gitdir = private unnamed_addr constant %struct.strbuf { i64 0, i64 0, ptr @strbuf_slopbuf }, align 8

; Function Attrs: inlinehint nounwind uwtable
define internal i32 @discover_git_directory(ptr noundef %0, ptr noundef %1) #6 {
  %3 = alloca i32, align 4
  %4 = alloca ptr, align 8
  %5 = alloca ptr, align 8
  store ptr %0, ptr %4, align 8, !tbaa !33
  store ptr %1, ptr %5, align 8, !tbaa !33
  %6 = load ptr, ptr %4, align 8, !tbaa !33
  %7 = load ptr, ptr %5, align 8, !tbaa !33
  %8 = call i32 @discover_git_directory_reason(ptr noundef %6, ptr noundef %7)
  %9 = icmp sle i32 %8, 0
  br i1 %9, label %10, label %11

10:                                               ; preds = %2
  store i32 -1, ptr %3, align 4
  br label %12

11:                                               ; preds = %2
  store i32 0, ptr %3, align 4
  br label %12

12:                                               ; preds = %11, %10
  %13 = load i32, ptr %3, align 4
  ret i32 %13
}

; Function Attrs: nounwind uwtable
define dso_local void @read_early_config(ptr noundef %0, ptr noundef %1, ptr noundef %2) #0 {
  %4 = alloca ptr, align 8
  %5 = alloca ptr, align 8
  %6 = alloca ptr, align 8
  %7 = alloca %struct.config_options, align 8
  %8 = alloca %struct.strbuf, align 8
  %9 = alloca %struct.strbuf, align 8
  store ptr %0, ptr %4, align 8, !tbaa !65
  store ptr %1, ptr %5, align 8, !tbaa !30
  store ptr %2, ptr %6, align 8, !tbaa !30
  call void @llvm.lifetime.start.p0(i64 48, ptr %7) #13
  call void @llvm.memset.p0.i64(ptr align 8 %7, i8 0, i64 48, i1 false)
  call void @llvm.lifetime.start.p0(i64 24, ptr %8) #13
  call void @llvm.memcpy.p0.p0.i64(ptr align 8 %8, ptr align 8 @__const.read_early_config.commondir, i64 24, i1 false)
  call void @llvm.lifetime.start.p0(i64 24, ptr %9) #13
  call void @llvm.memcpy.p0.p0.i64(ptr align 8 %9, ptr align 8 @__const.read_early_config.gitdir, i64 24, i1 false)
  %10 = load i8, ptr %7, align 8
  %11 = and i8 %10, -2
  %12 = or i8 %11, 1
  store i8 %12, ptr %7, align 8
  %13 = load ptr, ptr %4, align 8, !tbaa !65
  %14 = icmp ne ptr %13, null
  br i1 %14, label %15, label %27

15:                                               ; preds = %3
  %16 = load ptr, ptr %4, align 8, !tbaa !65
  %17 = getelementptr inbounds nuw %struct.repository, ptr %16, i32 0, i32 0
  %18 = load ptr, ptr %17, align 8, !tbaa !106
  %19 = icmp ne ptr %18, null
  br i1 %19, label %20, label %27

20:                                               ; preds = %15
  %21 = load ptr, ptr %4, align 8, !tbaa !65
  %22 = call ptr @repo_get_common_dir(ptr noundef %21)
  %23 = getelementptr inbounds nuw %struct.config_options, ptr %7, i32 0, i32 1
  store ptr %22, ptr %23, align 8, !tbaa !87
  %24 = load ptr, ptr %4, align 8, !tbaa !65
  %25 = call ptr @repo_get_git_dir(ptr noundef %24)
  %26 = getelementptr inbounds nuw %struct.config_options, ptr %7, i32 0, i32 2
  store ptr %25, ptr %26, align 8, !tbaa !85
  br label %38

27:                                               ; preds = %15, %3
  %28 = call i32 @discover_git_directory(ptr noundef %8, ptr noundef %9)
  %29 = icmp ne i32 %28, 0
  br i1 %29, label %37, label %30

30:                                               ; preds = %27
  %31 = getelementptr inbounds nuw %struct.strbuf, ptr %8, i32 0, i32 2
  %32 = load ptr, ptr %31, align 8, !tbaa !10
  %33 = getelementptr inbounds nuw %struct.config_options, ptr %7, i32 0, i32 1
  store ptr %32, ptr %33, align 8, !tbaa !87
  %34 = getelementptr inbounds nuw %struct.strbuf, ptr %9, i32 0, i32 2
  %35 = load ptr, ptr %34, align 8, !tbaa !10
  %36 = getelementptr inbounds nuw %struct.config_options, ptr %7, i32 0, i32 2
  store ptr %35, ptr %36, align 8, !tbaa !85
  br label %37

37:                                               ; preds = %30, %27
  br label %38

38:                                               ; preds = %37, %20
  %39 = load ptr, ptr %5, align 8, !tbaa !30
  %40 = load ptr, ptr %6, align 8, !tbaa !30
  %41 = call i32 @config_with_options(ptr noundef %39, ptr noundef %40, ptr noundef null, ptr noundef null, ptr noundef %7)
  call void @strbuf_release(ptr noundef %8)
  call void @strbuf_release(ptr noundef %9)
  call void @llvm.lifetime.end.p0(i64 24, ptr %9) #13
  call void @llvm.lifetime.end.p0(i64 24, ptr %8) #13
  call void @llvm.lifetime.end.p0(i64 48, ptr %7) #13
  ret void
}