; Function Attrs: nounwind uwtable
define dso_local void @read_early_config(ptr noundef %0, ptr noundef %1, ptr noundef %2) local_unnamed_addr #0 {
  %4 = alloca %struct.config_options, align 8
  %5 = alloca %struct.strbuf, align 8
  %6 = alloca %struct.strbuf, align 8
  call void @llvm.lifetime.start.p0(i64 48, ptr nonnull %4) #30
  call void @llvm.memset.p0.i64(ptr noundef nonnull align 8 dereferenceable(48) %4, i8 0, i64 48, i1 false)
  call void @llvm.lifetime.start.p0(i64 24, ptr nonnull %5) #30
  call void @llvm.memcpy.p0.p0.i64(ptr noundef nonnull align 8 dereferenceable(24) %5, ptr noundef nonnull align 8 dereferenceable(24) @__const.repo_config_copy_or_rename_section_in_file.copystr, i64 24, i1 false)
  call void @llvm.lifetime.start.p0(i64 24, ptr nonnull %6) #30
  call void @llvm.memcpy.p0.p0.i64(ptr noundef nonnull align 8 dereferenceable(24) %6, ptr noundef nonnull align 8 dereferenceable(24) @__const.repo_config_copy_or_rename_section_in_file.copystr, i64 24, i1 false)
  store i8 1, ptr %4, align 8
  %.not = icmp eq ptr %0, null
  br i1 %.not, label %13, label %7

7:                                                ; preds = %3
  %8 = load ptr, ptr %0, align 8, !tbaa !103
  %.not6 = icmp eq ptr %8, null
  br i1 %.not6, label %13, label %9

9:                                                ; preds = %7
  %10 = tail call ptr @repo_get_common_dir(ptr noundef nonnull %0) #30
  %11 = getelementptr inbounds nuw i8, ptr %4, i64 8
  store ptr %10, ptr %11, align 8, !tbaa !73
  %12 = tail call ptr @repo_get_git_dir(ptr noundef nonnull %0) #30
  br label %.sink.split

13:                                               ; preds = %7, %3
  %14 = call i32 @discover_git_directory_reason(ptr noundef nonnull %5, ptr noundef nonnull %6) #30
  %15 = icmp sgt i32 %14, 0
  br i1 %15, label %16, label %23

16:                                               ; preds = %13
  %17 = getelementptr inbounds nuw i8, ptr %5, i64 16
  %18 = load ptr, ptr %17, align 8, !tbaa !13
  %19 = getelementptr inbounds nuw i8, ptr %4, i64 8
  store ptr %18, ptr %19, align 8, !tbaa !73
  %20 = getelementptr inbounds nuw i8, ptr %6, i64 16
  %21 = load ptr, ptr %20, align 8, !tbaa !13
  br label %.sink.split

.sink.split:                                      ; preds = %9, %16
  %.sink = phi ptr [ %21, %16 ], [ %12, %9 ]
  %22 = getelementptr inbounds nuw i8, ptr %4, i64 16
  store ptr %.sink, ptr %22, align 8, !tbaa !72
  br label %23

23:                                               ; preds = %.sink.split, %13
  %24 = call i32 @config_with_options(ptr noundef %1, ptr noundef %2, ptr noundef null, ptr noundef null, ptr noundef nonnull %4)
  call void @strbuf_release(ptr noundef nonnull %5) #30
  call void @strbuf_release(ptr noundef nonnull %6) #30
  call void @llvm.lifetime.end.p0(i64 24, ptr nonnull %6) #30
  call void @llvm.lifetime.end.p0(i64 24, ptr nonnull %5) #30
  call void @llvm.lifetime.end.p0(i64 48, ptr nonnull %4) #30
  ret void
}